target datalayout = "e-m:e-p270:32:32-p271:32:32-p272:64:64-i64:64-i128:128-f80:128-n8:16:32:64-S128"
target triple = "x86_64-pc-linux-gnu"

%struct.can_info = type { i32, i32, i32, i16 }
%struct.isobus_info = type { i32, i16, i8, i8, i32, i8 }

@subdissector_table_pdu_format = internal global ptr null, align 8
@subdissector_table_pgn = internal global ptr null, align 8

; Function Attrs: null_pointer_is_valid sspstrong uwtable
define internal i32 @call_isobus_subdissector(ptr noundef %0, ptr noundef %1, ptr noundef %2, i1 noundef zeroext %3, i8 noundef zeroext %4, i8 noundef zeroext %5, i32 noundef %6, i8 noundef zeroext %7, ptr noundef %8) #0 {
  %10 = alloca i32, align 4
  %11 = alloca ptr, align 8
  %12 = alloca ptr, align 8
  %13 = alloca ptr, align 8
  %14 = alloca i8, align 1
  %15 = alloca i8, align 1
  %16 = alloca i8, align 1
  %17 = alloca i32, align 4
  %18 = alloca i8, align 1
  %19 = alloca ptr, align 8
  %20 = alloca ptr, align 8
  %21 = alloca %struct.isobus_info, align 4
  %22 = alloca i32, align 4
  %23 = alloca i32, align 4
  store ptr %0, ptr %11, align 8
  store ptr %1, ptr %12, align 8
  store ptr %2, ptr %13, align 8
  %24 = zext i1 %3 to i8
  store i8 %24, ptr %14, align 1
  store i8 %4, ptr %15, align 1
  store i8 %5, ptr %16, align 1
  store i32 %6, ptr %17, align 4
  store i8 %7, ptr %18, align 1
  store ptr %8, ptr %19, align 8
  call void @llvm.lifetime.start.p0(i64 8, ptr %20) #11
  %25 = load ptr, ptr %19, align 8
  store ptr %25, ptr %20, align 8
  call void @llvm.lifetime.start.p0(i64 16, ptr %21) #11
  %26 = load ptr, ptr %20, align 8
  %27 = getelementptr inbounds nuw %struct.can_info, ptr %26, i32 0, i32 0
  %28 = load i32, ptr %27, align 4
  %29 = getelementptr inbounds nuw %struct.isobus_info, ptr %21, i32 0, i32 0
  store i32 %28, ptr %29, align 4
  %30 = load ptr, ptr %20, align 8
  %31 = getelementptr inbounds nuw %struct.can_info, ptr %30, i32 0, i32 3
  %32 = load i16, ptr %31, align 4
  %33 = getelementptr inbounds nuw %struct.isobus_info, ptr %21, i32 0, i32 1
  store i16 %32, ptr %33, align 4
  %34 = load i8, ptr %16, align 1
  %35 = getelementptr inbounds nuw %struct.isobus_info, ptr %21, i32 0, i32 3
  store i8 %34, ptr %35, align 1
  %36 = load i32, ptr %17, align 4
  %37 = getelementptr inbounds nuw %struct.isobus_info, ptr %21, i32 0, i32 4
  store i32 %36, ptr %37, align 4
  %38 = load i8, ptr %15, align 1
  %39 = getelementptr inbounds nuw %struct.isobus_info, ptr %21, i32 0, i32 2
  store i8 %38, ptr %39, align 2
  %40 = load i8, ptr %18, align 1
  %41 = getelementptr inbounds nuw %struct.isobus_info, ptr %21, i32 0, i32 5
  store i8 %40, ptr %41, align 4
  call void @llvm.lifetime.start.p0(i64 4, ptr %22) #11
  %42 = load ptr, ptr @subdissector_table_pgn, align 8
  %43 = load i32, ptr %17, align 4
  %44 = load ptr, ptr %11, align 8
  %45 = load ptr, ptr %12, align 8
  %46 = load ptr, ptr %13, align 8
  %47 = load i8, ptr %14, align 1, !range !6, !noundef !7
  %48 = trunc i8 %47 to i1
  %49 = call i32 @dissector_try_uint_with_data(ptr noundef %42, i32 noundef %43, ptr noundef %44, ptr noundef %45, ptr noundef %46, i1 noundef zeroext %48, ptr noundef %21)
  store i32 %49, ptr %22, align 4
  %50 = load i32, ptr %22, align 4
  %51 = icmp sgt i32 %50, 0
  br i1 %51, label %52, label %54

52:                                               ; preds = %9
  %53 = load i32, ptr %22, align 4
  store i32 %53, ptr %10, align 4
  store i32 1, ptr %23, align 4
  br label %64

54:                                               ; preds = %9
  %55 = load ptr, ptr @subdissector_table_pdu_format, align 8
  %56 = load i8, ptr %16, align 1
  %57 = zext i8 %56 to i32
  %58 = load ptr, ptr %11, align 8
  %59 = load ptr, ptr %12, align 8
  %60 = load ptr, ptr %13, align 8
  %61 = load i8, ptr %14, align 1, !range !6, !noundef !7
  %62 = trunc i8 %61 to i1
  %63 = call i32 @dissector_try_uint_with_data(ptr noundef %55, i32 noundef %57, ptr noundef %58, ptr noundef %59, ptr noundef %60, i1 noundef zeroext %62, ptr noundef %21)
  store i32 %63, ptr %10, align 4
  store i32 1, ptr %23, align 4
  br label %64

64:                                               ; preds = %54, %52
  call void @llvm.lifetime.end.p0(i64 4, ptr %22) #11
  call void @llvm.lifetime.end.p0(i64 16, ptr %21) #11
  call void @llvm.lifetime.end.p0(i64 8, ptr %20) #11
  %65 = load i32, ptr %10, align 4
  ret i32 %65
}