; Function Attrs: null_pointer_is_valid sspstrong uwtable
define internal fastcc i32 @call_isobus_subdissector(ptr noundef %0, ptr noundef %1, ptr noundef %2, i8 noundef zeroext range(i8 0, 8) %3, i8 noundef zeroext %4, i32 noundef range(i32 0, 262144) %5, i8 noundef zeroext %6, i32 %.0.val, i16 %.12.val) unnamed_addr #0 {
  %8 = alloca %struct.isobus_info, align 4
  call void @llvm.lifetime.start.p0(i64 16, ptr nonnull %8) #10
  store i32 %.0.val, ptr %8, align 4
  %9 = getelementptr inbounds nuw i8, ptr %8, i64 4
  store i16 %.12.val, ptr %9, align 4
  %10 = getelementptr inbounds nuw i8, ptr %8, i64 7
  store i8 %4, ptr %10, align 1
  %11 = getelementptr inbounds nuw i8, ptr %8, i64 8
  store i32 %5, ptr %11, align 4
  %12 = getelementptr inbounds nuw i8, ptr %8, i64 6
  store i8 %3, ptr %12, align 2
  %13 = getelementptr inbounds nuw i8, ptr %8, i64 12
  store i8 %6, ptr %13, align 4
  %14 = load ptr, ptr @subdissector_table_pgn, align 8
  %15 = call i32 @dissector_try_uint_with_data(ptr noundef %14, i32 noundef %5, ptr noundef %0, ptr noundef %1, ptr noundef %2, i1 noundef zeroext false, ptr noundef nonnull %8)
  %16 = icmp sgt i32 %15, 0
  br i1 %16, label %21, label %17

17:                                               ; preds = %7
  %18 = load ptr, ptr @subdissector_table_pdu_format, align 8
  %19 = zext i8 %4 to i32
  %20 = call i32 @dissector_try_uint_with_data(ptr noundef %18, i32 noundef %19, ptr noundef %0, ptr noundef %1, ptr noundef %2, i1 noundef zeroext false, ptr noundef nonnull %8)
  br label %21

21:                                               ; preds = %7, %17
  %.0 = phi i32 [ %20, %17 ], [ %15, %7 ]
  call void @llvm.lifetime.end.p0(i64 16, ptr nonnull %8) #10
  ret i32 %.0
}